; Function Attrs: nounwind uwtable
define ptr @l___private_Lean_Compiler_IR_FreeVars_0__Lean_IR_FreeIndices_collectArray___rarg(ptr noundef readonly captures(none) %0, ptr noundef %1, ptr noundef %2, ptr noundef %3) local_unnamed_addr #0 {
lean_nat_lt.exit:
  %4 = getelementptr i8, ptr %0, i64 8
  %.val = load i64, ptr %4, align 8, !tbaa !17
  %.mask = and i64 %.val, 9223372036854775807
  %.not = icmp eq i64 %.mask, 0
  br i1 %.not, label %lean_dec.exit29, label %lean_dec.exit

lean_dec.exit29:                                  ; preds = %lean_nat_lt.exit
  %5 = ptrtoint ptr %2 to i64
  %6 = and i64 %5, 1
  %.not45 = icmp eq i64 %6, 0
  br i1 %.not45, label %7, label %lean_dec.exit28

7:                                                ; preds = %lean_dec.exit29
  %8 = load i32, ptr %2, align 4, !tbaa !4
  %9 = icmp sgt i32 %8, 1
  br i1 %9, label %10, label %12, !prof !9

10:                                               ; preds = %7
  %11 = add nsw i32 %8, -1
  store i32 %11, ptr %2, align 4, !tbaa !4
  br label %lean_dec.exit28

12:                                               ; preds = %7
  %.not.i30 = icmp eq i32 %8, 0
  br i1 %.not.i30, label %lean_dec.exit28, label %13

13:                                               ; preds = %12
  tail call void @lean_dec_ref_cold(ptr noundef nonnull %2) #3
  br label %lean_dec.exit28

lean_dec.exit28:                                  ; preds = %13, %12, %10, %lean_dec.exit29
  %14 = ptrtoint ptr %1 to i64
  %15 = and i64 %14, 1
  %.not46 = icmp eq i64 %15, 0
  br i1 %.not46, label %16, label %lean_dec.exit27

16:                                               ; preds = %lean_dec.exit28
  %17 = load i32, ptr %1, align 4, !tbaa !4
  %18 = icmp sgt i32 %17, 1
  br i1 %18, label %19, label %21, !prof !9

19:                                               ; preds = %16
  %20 = add nsw i32 %17, -1
  store i32 %20, ptr %1, align 4, !tbaa !4
  br label %lean_dec.exit27

21:                                               ; preds = %16
  %.not.i32 = icmp eq i32 %17, 0
  br i1 %.not.i32, label %lean_dec.exit27, label %22

22:                                               ; preds = %21
  tail call void @lean_dec_ref_cold(ptr noundef nonnull %1) #3
  br label %lean_dec.exit27

lean_dec.exit:                                    ; preds = %lean_nat_lt.exit
  %23 = tail call ptr @l_Array_foldlMUnsafe_fold___at___private_Lean_Compiler_IR_FreeVars_0__Lean_IR_FreeIndices_collectArray___spec__1___rarg(ptr noundef %1, ptr noundef %2, ptr noundef nonnull %0, i64 noundef 0, i64 noundef %.mask, ptr noundef %3)
  br label %lean_dec.exit27

lean_dec.exit27:                                  ; preds = %lean_dec.exit28, %19, %21, %22, %lean_dec.exit
  %.0 = phi ptr [ %23, %lean_dec.exit ], [ %3, %22 ], [ %3, %21 ], [ %3, %19 ], [ %3, %lean_dec.exit28 ]
  ret ptr %.0
}